target datalayout = "e-m:e-p270:32:32-p271:32:32-p272:64:64-i64:64-i128:128-f80:128-n8:16:32:64-S128"
target triple = "x86_64-unknown-linux-gnu"

%class.symbol = type { ptr }
%"class.smt::setup" = type <{ ptr, ptr, ptr, %class.symbol, i8, [7 x i8] }>
%struct.theory_arith_params = type <{ i8, i8, [2 x i8], i32, i8, [3 x i8], i32, i8, [3 x i8], i32, i8, i8, [2 x i8], i32, i32, i8, i8, [2 x i8], i32, i32, i8, [3 x i8], i32, i32, i8, [3 x i8], double, double, i8, [3 x i8], i32, i8, i8, i8, i8, i8, [3 x i8], i32, i32, i8, [3 x i8], i32, i8, i8, i8, i8, i8, i8, [2 x i8], i32, i8, i8, [2 x i8], i32, i8, [3 x i8], i32, i8, i8, i8, i8 }>

; Function Attrs: mustprogress uwtable
define hidden void @_ZN3smt5setup15setup_lra_arithEv(ptr noundef nonnull align 8 dereferenceable(33) %this) #5 align 2 {
entry:
  %this.addr = alloca ptr, align 8
  store ptr %this, ptr %this.addr, align 8
  %this1 = load ptr, ptr %this.addr, align 8
  %m_params = getelementptr inbounds %"class.smt::setup", ptr %this1, i32 0, i32 2
  %0 = load ptr, ptr %m_params, align 8
  %add.ptr = getelementptr inbounds i8, ptr %0, i64 248
  %m_arith_mode = getelementptr inbounds %struct.theory_arith_params, ptr %add.ptr, i32 0, i32 3
  %1 = load i32, ptr %m_arith_mode, align 4
  %cmp = icmp eq i32 %1, 2
  br i1 %cmp, label %if.then, label %if.else

if.then:                                          ; preds = %entry
  %m_context = getelementptr inbounds %"class.smt::setup", ptr %this1, i32 0, i32 0
  %2 = load ptr, ptr %m_context, align 8
  %call = call noalias noundef ptr @_ZN6memory8allocateEm(i64 noundef 1640)
  %m_context2 = getelementptr inbounds %"class.smt::setup", ptr %this1, i32 0, i32 0
  %3 = load ptr, ptr %m_context2, align 8
  call void @_ZN3smt12theory_arithINS_6mi_extEEC1ERNS_7contextE(ptr noundef nonnull align 8 dereferenceable(1640) %call, ptr noundef nonnull align 8 dereferenceable(11616) %3)
  call void @_ZN3smt7context15register_pluginEPNS_6theoryE(ptr noundef nonnull align 8 dereferenceable(11616) %2, ptr noundef %call)
  br label %if.end

if.else:                                          ; preds = %entry
  %m_context3 = getelementptr inbounds %"class.smt::setup", ptr %this1, i32 0, i32 0
  %4 = load ptr, ptr %m_context3, align 8
  %call4 = call noalias noundef ptr @_ZN6memory8allocateEm(i64 noundef 72)
  %m_context5 = getelementptr inbounds %"class.smt::setup", ptr %this1, i32 0, i32 0
  %5 = load ptr, ptr %m_context5, align 8
  call void @_ZN3smt10theory_lraC1ERNS_7contextE(ptr noundef nonnull align 8 dereferenceable(72) %call4, ptr noundef nonnull align 8 dereferenceable(11616) %5)
  call void @_ZN3smt7context15register_pluginEPNS_6theoryE(ptr noundef nonnull align 8 dereferenceable(11616) %4, ptr noundef %call4)
  br label %if.end

if.end:                                           ; preds = %if.else, %if.then
  ret void
}

; Function Attrs: mustprogress uwtable
define hidden void @_ZN3smt5setup12setup_QF_LRAEv(ptr noundef nonnull align 8 dereferenceable(33) %this) #5 align 2 {
entry:
  %this.addr = alloca ptr, align 8
  store ptr %this, ptr %this.addr, align 8
  %this1 = load ptr, ptr %this.addr, align 8
  %m_params = getelementptr inbounds %"class.smt::setup", ptr %this1, i32 0, i32 2
  %0 = load ptr, ptr %m_params, align 8
  call void @_ZN10smt_params12setup_QF_LRAEv(ptr noundef nonnull align 8 dereferenceable(800) %0)
  call void @_ZN3smt5setup15setup_lra_arithEv(ptr noundef nonnull align 8 dereferenceable(33) %this1)
  ret void
}